; Function Attrs: mustprogress uwtable
define void @_ZN14duckdb_parquet11AesGcmCtrV121__set_aad_file_uniqueERKNSt7__cxx1112basic_stringIcSt11char_traitsIcESaIcEEE(ptr noundef nonnull align 8 dereferenceable(74) %0, ptr noundef nonnull align 8 dereferenceable(32) %1) local_unnamed_addr #2 align 2 {
  %3 = getelementptr inbounds nuw i8, ptr %0, i64 40
  tail call void @_ZNSt7__cxx1112basic_stringIcSt11char_traitsIcESaIcEE9_M_assignERKS4_(ptr noundef nonnull align 8 dereferenceable(32) %3, ptr noundef nonnull align 8 dereferenceable(32) %1)
  %4 = getelementptr inbounds nuw i8, ptr %0, i64 73
  %5 = load i8, ptr %4, align 1
  %6 = or i8 %5, 2
  store i8 %6, ptr %4, align 1
  ret void
}